target datalayout = "e-m:e-p270:32:32-p271:32:32-p272:64:64-i64:64-i128:128-f80:128-n8:16:32:64-S128"
target triple = "x86_64-pc-linux-gnu"

%struct.lv_ll_t = type { i32, ptr, ptr }
%struct._lv_spangroup_t = type { %struct._lv_obj_t, i32, i32, i32, i32, %struct.lv_ll_t, i8 }
%struct._lv_obj_t = type { ptr, ptr, ptr, ptr, ptr, %struct.lv_area_t, i32, i16, i16 }
%struct.lv_area_t = type { i32, i32, i32, i32 }

; Function Attrs: nounwind uwtable
define void @lv_spangroup_set_mode(ptr noundef %0, i32 noundef %1) #0 {
  %3 = alloca ptr, align 8
  %4 = alloca i32, align 4
  %5 = alloca ptr, align 8
  %6 = alloca i32, align 4
  store ptr %0, ptr %3, align 8, !tbaa !3
  store i32 %1, ptr %4, align 4, !tbaa !23
  br label %7

7:                                                ; preds = %2
  br label %8

8:                                                ; preds = %7
  call void @llvm.lifetime.start.p0(i64 8, ptr %5) #6
  %9 = load ptr, ptr %3, align 8, !tbaa !3
  store ptr %9, ptr %5, align 8, !tbaa !3
  %10 = load i32, ptr %4, align 4, !tbaa !23
  %11 = icmp uge i32 %10, 3
  br i1 %11, label %12, label %13

12:                                               ; preds = %8
  store i32 1, ptr %6, align 4
  br label %23

13:                                               ; preds = %8
  %14 = load i32, ptr %4, align 4, !tbaa !23
  %15 = load ptr, ptr %5, align 8, !tbaa !3
  %16 = getelementptr inbounds nuw %struct._lv_spangroup_t, ptr %15, i32 0, i32 6
  %17 = trunc i32 %14 to i8
  %18 = load i8, ptr %16, align 8
  %19 = and i8 %17, 3
  %20 = and i8 %18, -4
  %21 = or i8 %20, %19
  store i8 %21, ptr %16, align 8
  %22 = load ptr, ptr %3, align 8, !tbaa !3
  call void @lv_spangroup_refr_mode(ptr noundef %22)
  store i32 0, ptr %6, align 4
  br label %23

23:                                               ; preds = %13, %12
  call void @llvm.lifetime.end.p0(i64 8, ptr %5) #6
  %24 = load i32, ptr %6, align 4
  switch i32 %24, label %26 [
    i32 0, label %25
    i32 1, label %25
  ]

25:                                               ; preds = %23, %23
  ret void

26:                                               ; preds = %23
  unreachable
}