; Function Attrs: nounwind uwtable
define void @lv_spangroup_set_mode(ptr noundef %0, i32 noundef %1) local_unnamed_addr #0 {
  %3 = icmp ugt i32 %1, 2
  br i1 %3, label %10, label %4

4:                                                ; preds = %2
  %5 = getelementptr inbounds nuw i8, ptr %0, i64 104
  %6 = trunc nuw nsw i32 %1 to i8
  %7 = load i8, ptr %5, align 8
  %8 = and i8 %7, -4
  %9 = or disjoint i8 %8, %6
  store i8 %9, ptr %5, align 8
  tail call void @lv_spangroup_refr_mode(ptr noundef %0)
  br label %10

10:                                               ; preds = %2, %4
  ret void
}